; Function Attrs: nounwind uwtable
define internal ptr @dict_iter(ptr noundef %0) #0 {
  %2 = tail call ptr @_PyObject_GC_New(ptr noundef nonnull @PyDictIterKey_Type) #23
  %3 = icmp eq ptr %2, null
  br i1 %3, label %dictiter_new.exit, label %4

4:                                                ; preds = %1
  %5 = load i32, ptr %0, align 8, !tbaa !41
  %6 = icmp slt i32 %5, 0
  br i1 %6, label %_Py_NewRef.exit.i, label %7

7:                                                ; preds = %4
  %8 = add nuw i32 %5, 1
  store i32 %8, ptr %0, align 8, !tbaa !41
  br label %_Py_NewRef.exit.i

_Py_NewRef.exit.i:                                ; preds = %7, %4
  %9 = getelementptr inbounds nuw i8, ptr %2, i64 16
  store ptr %0, ptr %9, align 8, !tbaa !186
  %10 = getelementptr inbounds nuw i8, ptr %0, i64 16
  %11 = load i64, ptr %10, align 8, !tbaa !43
  %12 = getelementptr inbounds nuw i8, ptr %2, i64 24
  store i64 %11, ptr %12, align 8, !tbaa !188
  %13 = getelementptr inbounds nuw i8, ptr %2, i64 48
  store i64 %11, ptr %13, align 8, !tbaa !189
  %14 = getelementptr inbounds nuw i8, ptr %2, i64 32
  %15 = getelementptr i8, ptr %2, i64 -16
  %16 = tail call align 8 ptr @llvm.threadlocal.address.p0(ptr align 8 @_Py_tss_tstate)
  tail call void @llvm.memset.p0.i64(ptr noundef nonnull align 8 dereferenceable(16) %14, i8 0, i64 16, i1 false)
  %17 = load ptr, ptr %16, align 8, !tbaa !4
  %18 = getelementptr inbounds nuw i8, ptr %17, i64 16
  %19 = load ptr, ptr %18, align 8, !tbaa !9
  %20 = getelementptr inbounds nuw i8, ptr %19, i64 7424
  %21 = getelementptr inbounds nuw i8, ptr %19, i64 7432
  %22 = load i64, ptr %21, align 8, !tbaa !69
  %23 = inttoptr i64 %22 to ptr
  %24 = ptrtoint ptr %15 to i64
  %25 = load i64, ptr %23, align 8, !tbaa !71
  %26 = and i64 %25, 3
  %27 = or i64 %26, %24
  store i64 %27, ptr %23, align 8, !tbaa !71
  %28 = getelementptr i8, ptr %2, i64 -8
  %29 = load i64, ptr %28, align 8, !tbaa !69
  %30 = and i64 %29, 3
  %31 = or i64 %30, %22
  store i64 %31, ptr %28, align 8, !tbaa !69
  %32 = getelementptr inbounds nuw i8, ptr %19, i64 7632
  %33 = load i32, ptr %32, align 8, !tbaa !72
  %34 = xor i32 %33, 1
  %35 = sext i32 %34 to i64
  %36 = ptrtoint ptr %20 to i64
  %37 = or i64 %35, %36
  store i64 %37, ptr %15, align 8, !tbaa !71
  store i64 %24, ptr %21, align 8, !tbaa !69
  br label %dictiter_new.exit

dictiter_new.exit:                                ; preds = %1, %_Py_NewRef.exit.i
  ret ptr %2
}